target datalayout = "e-m:e-p270:32:32-p271:32:32-p272:64:64-i64:64-i128:128-f80:128-n8:16:32:64-S128"
target triple = "x86_64-pc-linux-gnu"

; Function Attrs: mustprogress nounwind uwtable
define dso_local noundef i32 @_Z6randomii(i32 noundef %0, i32 noundef %1) #0 {
  %3 = alloca i32, align 4
  %4 = alloca i32, align 4
  store i32 %0, ptr %3, align 4, !tbaa !4
  store i32 %1, ptr %4, align 4, !tbaa !4
  %5 = load i32, ptr %3, align 4, !tbaa !4
  %6 = sitofp i32 %5 to double
  %7 = call i32 @rand() #13
  %8 = sitofp i32 %7 to double
  %9 = fdiv double %8, 0x41DFFFFFFFC00000
  %10 = load i32, ptr %4, align 4, !tbaa !4
  %11 = load i32, ptr %3, align 4, !tbaa !4
  %12 = sub nsw i32 %10, %11
  %13 = sitofp i32 %12 to double
  %14 = call double @llvm.fmuladd.f64(double %9, double %13, double %6)
  %15 = fadd double %14, 5.000000e-01
  %16 = fptosi double %15 to i32
  ret i32 %16
}