; Function Attrs: mustprogress nounwind uwtable
define dso_local noundef i32 @_Z6randomii(i32 noundef %0, i32 noundef %1) local_unnamed_addr #0 {
  %3 = sitofp i32 %0 to double
  %4 = tail call i32 @rand() #10
  %5 = sitofp i32 %4 to double
  %6 = fdiv double %5, 0x41DFFFFFFFC00000
  %7 = sub nsw i32 %1, %0
  %8 = sitofp i32 %7 to double
  %9 = tail call double @llvm.fmuladd.f64(double %6, double %8, double %3)
  %10 = fadd double %9, 5.000000e-01
  %11 = fptosi double %10 to i32
  ret i32 %11
}